; ModuleID = 'source-C-CXX/54/1693.cpp'
source_filename = "source-C-CXX/54/1693.cpp"
target datalayout = "e-m:e-p270:32:32-p271:32:32-p272:64:64-i64:64-f80:128-n8:16:32:64-S128"
target triple = "x86_64-pc-linux-gnu"

%"class.std::ios_base::Init" = type { i8 }
%"class.std::basic_istream" = type { i32 (...)**, i64, %"class.std::basic_ios" }
%"class.std::basic_ios" = type { %"class.std::ios_base", %"class.std::basic_ostream"*, i8, i8, %"class.std::basic_streambuf"*, %"class.std::ctype"*, %"class.std::num_put"*, %"class.std::num_get"* }
%"class.std::ios_base" = type { i32 (...)**, i64, i64, i32, i32, i32, %"struct.std::ios_base::_Callback_list"*, %"struct.std::ios_base::_Words", [8 x %"struct.std::ios_base::_Words"], i32, %"struct.std::ios_base::_Words"*, %"class.std::locale" }
%"struct.std::ios_base::_Callback_list" = type { %"struct.std::ios_base::_Callback_list"*, void (i32, %"class.std::ios_base"*, i32)*, i32, i32 }
%"struct.std::ios_base::_Words" = type { i8*, i64 }
%"class.std::locale" = type { %"class.std::locale::_Impl"* }
%"class.std::locale::_Impl" = type { i32, %"class.std::locale::facet"**, i64, %"class.std::locale::facet"**, i8** }
%"class.std::locale::facet" = type <{ i32 (...)**, i32, [4 x i8] }>
%"class.std::basic_ostream" = type { i32 (...)**, %"class.std::basic_ios" }
%"class.std::basic_streambuf" = type { i32 (...)**, i8*, i8*, i8*, i8*, i8*, i8*, %"class.std::locale" }
%"class.std::ctype" = type <{ %"class.std::locale::facet.base", [4 x i8], %struct.__locale_struct*, i8, [7 x i8], i32*, i32*, i16*, i8, [256 x i8], [256 x i8], i8, [6 x i8] }>
%"class.std::locale::facet.base" = type <{ i32 (...)**, i32 }>
%struct.__locale_struct = type { [13 x %struct.__locale_data*], i16*, i32*, i32*, [13 x i8*] }
%struct.__locale_data = type opaque
%"class.std::num_put" = type { %"class.std::locale::facet.base", [4 x i8] }
%"class.std::num_get" = type { %"class.std::locale::facet.base", [4 x i8] }

@_ZStL8__ioinit = internal global %"class.std::ios_base::Init" zeroinitializer, align 1
@__dso_handle = external hidden global i8
@_ZSt3cin = external global %"class.std::basic_istream", align 8
@_ZSt4cout = external global %"class.std::basic_ostream", align 8
@llvm.global_ctors = appending global [1 x { i32, void ()*, i8* }] [{ i32, void ()*, i8* } { i32 65535, void ()* @_GLOBAL__sub_I_1693.cpp, i8* null }]

declare void @_ZNSt8ios_base4InitC1Ev(%"class.std::ios_base::Init"* nonnull align 1 dereferenceable(1)) unnamed_addr #0

; Function Attrs: nounwind
declare void @_ZNSt8ios_base4InitD1Ev(%"class.std::ios_base::Init"* nonnull align 1 dereferenceable(1)) unnamed_addr #1

; Function Attrs: nofree nounwind
declare i32 @__cxa_atexit(void (i8*)*, i8*, i8*) local_unnamed_addr #2

; Function Attrs: mustprogress norecurse sspstrong uwtable
define dso_local i32 @main() local_unnamed_addr #3 {
  %1 = alloca i8, align 1
  %2 = alloca i32, align 4
  %3 = alloca i32, align 4
  %4 = alloca [1000 x i8], align 16
  %5 = alloca [1000 x i8], align 16
  %6 = bitcast i32* %2 to i8*
  call void @llvm.lifetime.start.p0i8(i64 4, i8* nonnull %6) #8
  %7 = bitcast i32* %3 to i8*
  call void @llvm.lifetime.start.p0i8(i64 4, i8* nonnull %7) #8
  %8 = getelementptr inbounds [1000 x i8], [1000 x i8]* %4, i64 0, i64 0
  call void @llvm.lifetime.start.p0i8(i64 1000, i8* nonnull %8) #8
  %9 = getelementptr inbounds [1000 x i8], [1000 x i8]* %5, i64 0, i64 0
  call void @llvm.lifetime.start.p0i8(i64 1000, i8* nonnull %9) #8
  call void @llvm.memset.p0i8.i64(i8* noundef nonnull align 16 dereferenceable(1000) %9, i8 0, i64 1000, i1 false)
  %10 = call nonnull align 8 dereferenceable(16) %"class.std::basic_istream"* @_ZNSirsERi(%"class.std::basic_istream"* nonnull align 8 dereferenceable(16) @_ZSt3cin, i32* nonnull align 4 dereferenceable(4) %2)
  %11 = call i32 @_ZNSi3getEv(%"class.std::basic_istream"* nonnull align 8 dereferenceable(16) @_ZSt3cin)
  %12 = call nonnull align 8 dereferenceable(16) %"class.std::basic_istream"* @_ZNSi7getlineEPclc(%"class.std::basic_istream"* nonnull align 8 dereferenceable(16) @_ZSt3cin, i8* nonnull %8, i64 1000, i8 signext 32)
  %13 = call nonnull align 8 dereferenceable(16) %"class.std::basic_istream"* @_ZNSirsERi(%"class.std::basic_istream"* nonnull align 8 dereferenceable(16) @_ZSt3cin, i32* nonnull align 4 dereferenceable(4) %3)
  %14 = call i64 @strlen(i8* noundef nonnull %8) #9
  %15 = trunc i64 %14 to i32
  %16 = load i32, i32* %2, align 4
  %17 = icmp sgt i32 %15, 0
  br i1 %17, label %18, label %42

18:                                               ; preds = %0
  %19 = and i64 %14, 4294967295
  %20 = and i64 %14, 1
  %21 = icmp eq i64 %19, 1
  br i1 %21, label %24, label %22

22:                                               ; preds = %18
  %23 = sub nsw i64 %19, %20
  br label %45

24:                                               ; preds = %45, %18
  %25 = phi i32 [ undef, %18 ], [ %73, %45 ]
  %26 = phi i64 [ 0, %18 ], [ %74, %45 ]
  %27 = phi i32 [ 0, %18 ], [ %73, %45 ]
  %28 = icmp eq i64 %20, 0
  br i1 %28, label %42, label %29

29:                                               ; preds = %24
  %30 = getelementptr inbounds [1000 x i8], [1000 x i8]* %4, i64 0, i64 %26
  %31 = load i8, i8* %30, align 1, !tbaa !5
  %32 = mul nsw i32 %16, %27
  %33 = add i8 %31, -48
  %34 = icmp ult i8 %33, 10
  %35 = add i8 %31, -65
  %36 = icmp ult i8 %35, 26
  %37 = select i1 %36, i32 -55, i32 -87
  %38 = select i1 %34, i32 -48, i32 %37
  %39 = sext i8 %31 to i32
  %40 = add nsw i32 %38, %39
  %41 = add nsw i32 %32, %40
  br label %42

42:                                               ; preds = %29, %24, %0
  %43 = phi i32 [ 0, %0 ], [ %25, %24 ], [ %41, %29 ]
  %44 = load i32, i32* %3, align 4, !tbaa !8
  br label %77

45:                                               ; preds = %45, %22
  %46 = phi i64 [ 0, %22 ], [ %74, %45 ]
  %47 = phi i32 [ 0, %22 ], [ %73, %45 ]
  %48 = phi i64 [ %23, %22 ], [ %75, %45 ]
  %49 = getelementptr inbounds [1000 x i8], [1000 x i8]* %4, i64 0, i64 %46
  %50 = load i8, i8* %49, align 2, !tbaa !5
  %51 = sext i8 %50 to i32
  %52 = add i8 %50, -48
  %53 = icmp ult i8 %52, 10
  %54 = add i8 %50, -65
  %55 = icmp ult i8 %54, 26
  %56 = select i1 %55, i32 -55, i32 -87
  %57 = select i1 %53, i32 -48, i32 %56
  %58 = add nsw i32 %57, %51
  %59 = mul nsw i32 %16, %47
  %60 = add nsw i32 %59, %58
  %61 = or i64 %46, 1
  %62 = getelementptr inbounds [1000 x i8], [1000 x i8]* %4, i64 0, i64 %61
  %63 = load i8, i8* %62, align 1, !tbaa !5
  %64 = sext i8 %63 to i32
  %65 = add i8 %63, -48
  %66 = icmp ult i8 %65, 10
  %67 = add i8 %63, -65
  %68 = icmp ult i8 %67, 26
  %69 = select i1 %68, i32 -55, i32 -87
  %70 = select i1 %66, i32 -48, i32 %69
  %71 = add nsw i32 %70, %64
  %72 = mul nsw i32 %16, %60
  %73 = add nsw i32 %72, %71
  %74 = add nuw nsw i64 %46, 2
  %75 = add i64 %48, -2
  %76 = icmp eq i64 %75, 0
  br i1 %76, label %24, label %45, !llvm.loop !10

77:                                               ; preds = %42, %77
  %78 = phi i64 [ 0, %42 ], [ %87, %77 ]
  %79 = phi i32 [ %43, %42 ], [ %86, %77 ]
  %80 = srem i32 %79, %44
  %81 = trunc i32 %80 to i8
  %82 = getelementptr inbounds [1000 x i8], [1000 x i8]* %5, i64 0, i64 %78
  %83 = icmp sgt i8 %81, 9
  %84 = select i1 %83, i8 55, i8 48
  %85 = add i8 %84, %81
  store i8 %85, i8* %82, align 1, !tbaa !5
  %86 = sdiv i32 %79, %44
  %87 = add nuw i64 %78, 1
  %88 = icmp eq i32 %86, 0
  br i1 %88, label %89, label %77, !llvm.loop !12

89:                                               ; preds = %77
  %90 = and i64 %78, 4294967295
  br label %91

91:                                               ; preds = %89, %91
  %92 = phi i64 [ %90, %89 ], [ %98, %91 ]
  %93 = getelementptr inbounds [1000 x i8], [1000 x i8]* %5, i64 0, i64 %92
  %94 = load i8, i8* %93, align 1, !tbaa !5
  call void @llvm.lifetime.start.p0i8(i64 1, i8* nonnull %1)
  store i8 %94, i8* %1, align 1, !tbaa !5
  %95 = call nonnull align 8 dereferenceable(8) %"class.std::basic_ostream"* @_ZSt16__ostream_insertIcSt11char_traitsIcEERSt13basic_ostreamIT_T0_ES6_PKS3_l(%"class.std::basic_ostream"* nonnull align 8 dereferenceable(8) @_ZSt4cout, i8* nonnull %1, i64 1)
  call void @llvm.lifetime.end.p0i8(i64 1, i8* nonnull %1)
  %96 = trunc i64 %92 to i32
  %97 = icmp sgt i32 %96, 0
  %98 = add nsw i64 %92, -1
  br i1 %97, label %91, label %99, !llvm.loop !13

99:                                               ; preds = %91
  call void @llvm.lifetime.end.p0i8(i64 1000, i8* nonnull %9) #8
  call void @llvm.lifetime.end.p0i8(i64 1000, i8* nonnull %8) #8
  call void @llvm.lifetime.end.p0i8(i64 4, i8* nonnull %7) #8
  call void @llvm.lifetime.end.p0i8(i64 4, i8* nonnull %6) #8
  ret i32 0
}

; Function Attrs: argmemonly mustprogress nofree nosync nounwind willreturn
declare void @llvm.lifetime.start.p0i8(i64 immarg, i8* nocapture) #4

; Function Attrs: argmemonly mustprogress nofree nounwind willreturn writeonly
declare void @llvm.memset.p0i8.i64(i8* nocapture writeonly, i8, i64, i1 immarg) #5

declare nonnull align 8 dereferenceable(16) %"class.std::basic_istream"* @_ZNSirsERi(%"class.std::basic_istream"* nonnull align 8 dereferenceable(16), i32* nonnull align 4 dereferenceable(4)) local_unnamed_addr #0

declare i32 @_ZNSi3getEv(%"class.std::basic_istream"* nonnull align 8 dereferenceable(16)) local_unnamed_addr #0

declare nonnull align 8 dereferenceable(16) %"class.std::basic_istream"* @_ZNSi7getlineEPclc(%"class.std::basic_istream"* nonnull align 8 dereferenceable(16), i8*, i64, i8 signext) local_unnamed_addr #0

; Function Attrs: argmemonly mustprogress nofree nounwind readonly willreturn
declare i64 @strlen(i8* nocapture) local_unnamed_addr #6

; Function Attrs: argmemonly mustprogress nofree nosync nounwind willreturn
declare void @llvm.lifetime.end.p0i8(i64 immarg, i8* nocapture) #4

declare nonnull align 8 dereferenceable(8) %"class.std::basic_ostream"* @_ZSt16__ostream_insertIcSt11char_traitsIcEERSt13basic_ostreamIT_T0_ES6_PKS3_l(%"class.std::basic_ostream"* nonnull align 8 dereferenceable(8), i8*, i64) local_unnamed_addr #0

; Function Attrs: sspstrong uwtable
define internal void @_GLOBAL__sub_I_1693.cpp() #7 section ".text.startup" {
  tail call void @_ZNSt8ios_base4InitC1Ev(%"class.std::ios_base::Init"* nonnull align 1 dereferenceable(1) @_ZStL8__ioinit)
  %1 = tail call i32 @__cxa_atexit(void (i8*)* bitcast (void (%"class.std::ios_base::Init"*)* @_ZNSt8ios_base4InitD1Ev to void (i8*)*), i8* getelementptr inbounds (%"class.std::ios_base::Init", %"class.std::ios_base::Init"* @_ZStL8__ioinit, i64 0, i32 0), i8* nonnull @__dso_handle) #8
  ret void
}


!llvm.module.flags = !{!0, !1, !2, !3}
!llvm.ident = !{!4}

!0 = !{i32 1, !"wchar_size", i32 4}
!1 = !{i32 7, !"PIC Level", i32 2}
!2 = !{i32 7, !"PIE Level", i32 2}
!3 = !{i32 7, !"uwtable", i32 1}
!4 = !{!"clang version 13.0.0"}
!5 = !{!6, !6, i64 0}
!6 = !{!"omnipotent char", !7, i64 0}
!7 = !{!"Simple C++ TBAA"}
!8 = !{!9, !9, i64 0}
!9 = !{!"int", !6, i64 0}
!10 = distinct !{!10, !11}
!11 = !{!"llvm.loop.mustprogress"}
!12 = distinct !{!12, !11}
!13 = distinct !{!13, !11}
